target datalayout = "e-m:e-p270:32:32-p271:32:32-p272:64:64-i64:64-i128:128-f80:128-n8:16:32:64-S128"
target triple = "x86_64-pc-linux-gnu"

%class.WirelessTimeline = type { %class.QWidget, double, double, double, ptr, [64 x [3 x float]], i64, i64, i32, ptr, ptr, ptr, ptr }
%class.QWidget = type { %class.QObject, %class.QPaintDevice.base, ptr }
%class.QObject = type { ptr, %class.QScopedPointer }
%class.QScopedPointer = type { ptr }
%class.QPaintDevice.base = type <{ ptr, i16 }>
%class.QWidgetData = type { i64, i32, %class.QFlags.17, i32, %class.QRect, [4 x i8], %class.QPalette, %class.QFont, %class.QRect }
%class.QFlags.17 = type { i32 }
%class.QPalette = type <{ ptr, i32, [4 x i8] }>
%class.QFont = type <{ %class.QExplicitlySharedDataPointer, i32, [4 x i8] }>
%class.QExplicitlySharedDataPointer = type { ptr }
%class.QRect = type { i32, i32, i32, i32 }

; Function Attrs: mustprogress nounwind uwtable
define linkonce_odr noundef i32 @_ZNK5QRect5widthEv(ptr noundef nonnull align 4 dereferenceable(16) %0) #1 comdat align 2 {
  %2 = alloca ptr, align 8
  store ptr %0, ptr %2, align 8
  %3 = load ptr, ptr %2, align 8
  %4 = getelementptr inbounds %class.QRect, ptr %3, i32 0, i32 2
  %5 = load i32, ptr %4, align 4
  %6 = getelementptr inbounds %class.QRect, ptr %3, i32 0, i32 0
  %7 = load i32, ptr %6, align 4
  %8 = sub i32 %5, %7
  %9 = add i32 %8, 1
  ret i32 %9
}

; Function Attrs: mustprogress nounwind uwtable
define linkonce_odr noundef i32 @_ZNK7QWidget5widthEv(ptr noundef nonnull align 8 dereferenceable(40) %0) #1 comdat align 2 {
  %2 = alloca ptr, align 8
  store ptr %0, ptr %2, align 8
  %3 = load ptr, ptr %2, align 8
  %4 = getelementptr inbounds %class.QWidget, ptr %3, i32 0, i32 2
  %5 = load ptr, ptr %4, align 8
  %6 = getelementptr inbounds %class.QWidgetData, ptr %5, i32 0, i32 4
  %7 = call noundef i32 @_ZNK5QRect5widthEv(ptr noundef nonnull align 4 dereferenceable(16) %6) #13
  ret i32 %7
}

; Function Attrs: mustprogress uwtable
define noundef i32 @_ZN16WirelessTimeline8positionEmf(ptr noundef nonnull align 8 dereferenceable(896) %0, i64 noundef %1, float noundef %2) #0 align 2 {
  %4 = alloca ptr, align 8
  %5 = alloca i64, align 8
  %6 = alloca float, align 4
  %7 = alloca i32, align 4
  store ptr %0, ptr %4, align 8
  store i64 %1, ptr %5, align 8
  store float %2, ptr %6, align 4
  %8 = load ptr, ptr %4, align 8
  store i32 -100, ptr %7, align 4
  %9 = load i64, ptr %5, align 8
  %10 = icmp ne i64 %9, -1
  br i1 %10, label %11, label %32

11:                                               ; preds = %3
  %12 = load i64, ptr %5, align 8
  %13 = uitofp i64 %12 to double
  %14 = getelementptr inbounds %class.WirelessTimeline, ptr %8, i32 0, i32 6
  %15 = load i64, ptr %14, align 8
  %16 = uitofp i64 %15 to double
  %17 = fsub double %13, %16
  %18 = call noundef i32 @_ZNK7QWidget5widthEv(ptr noundef nonnull align 8 dereferenceable(40) %8)
  %19 = sitofp i32 %18 to double
  %20 = fmul double %17, %19
  %21 = load float, ptr %6, align 4
  %22 = fpext float %21 to double
  %23 = fmul double %20, %22
  %24 = getelementptr inbounds %class.WirelessTimeline, ptr %8, i32 0, i32 7
  %25 = load i64, ptr %24, align 8
  %26 = getelementptr inbounds %class.WirelessTimeline, ptr %8, i32 0, i32 6
  %27 = load i64, ptr %26, align 8
  %28 = sub i64 %25, %27
  %29 = uitofp i64 %28 to double
  %30 = fdiv double %23, %29
  %31 = fptosi double %30 to i32
  store i32 %31, ptr %7, align 4
  br label %32

32:                                               ; preds = %11, %3
  %33 = load i32, ptr %7, align 4
  ret i32 %33
}