; Function Attrs: mustprogress nofree norecurse nosync nounwind willreturn memory(read, inaccessiblemem: none) uwtable
define noundef i32 @_ZN16WirelessTimeline8positionEmf(ptr nocapture noundef nonnull readonly align 8 dereferenceable(896) %0, i64 noundef %1, float noundef %2) local_unnamed_addr #7 align 2 {
  %.not = icmp eq i64 %1, -1
  br i1 %.not, label %28, label %4

4:                                                ; preds = %3
  %5 = uitofp i64 %1 to double
  %6 = getelementptr inbounds i8, ptr %0, i64 840
  %7 = load i64, ptr %6, align 8
  %8 = uitofp i64 %7 to double
  %9 = fsub double %5, %8
  %10 = getelementptr inbounds i8, ptr %0, i64 32
  %11 = load ptr, ptr %10, align 8
  %12 = getelementptr inbounds i8, ptr %11, i64 20
  %13 = getelementptr inbounds i8, ptr %11, i64 28
  %14 = load i32, ptr %13, align 4
  %15 = load i32, ptr %12, align 4
  %16 = add i32 %14, 1
  %17 = sub i32 %16, %15
  %18 = sitofp i32 %17 to double
  %19 = fmul double %9, %18
  %20 = fpext float %2 to double
  %21 = fmul double %19, %20
  %22 = getelementptr inbounds i8, ptr %0, i64 848
  %23 = load i64, ptr %22, align 8
  %24 = sub i64 %23, %7
  %25 = uitofp i64 %24 to double
  %26 = fdiv double %21, %25
  %27 = fptosi double %26 to i32
  br label %28

28:                                               ; preds = %4, %3
  %.0 = phi i32 [ %27, %4 ], [ -100, %3 ]
  ret i32 %.0
}